target datalayout = "e-m:e-p270:32:32-p271:32:32-p272:64:64-i64:64-i128:128-f80:128-n8:16:32:64-S128"
target triple = "x86_64-pc-linux-gnu"

%struct.luaL_Stream = type { ptr, ptr }

@.str.16 = private unnamed_addr constant [6 x i8] c"FILE*\00", align 1

; Function Attrs: nounwind uwtable
define internal ptr @newprefile(ptr noundef %0) #0 {
  %2 = alloca ptr, align 8
  %3 = alloca ptr, align 8
  store ptr %0, ptr %2, align 8, !tbaa !4
  call void @llvm.lifetime.start.p0(i64 8, ptr %3) #8
  %4 = load ptr, ptr %2, align 8, !tbaa !4
  %5 = call ptr @lua_newuserdatauv(ptr noundef %4, i64 noundef 16, i32 noundef 0)
  store ptr %5, ptr %3, align 8, !tbaa !13
  %6 = load ptr, ptr %3, align 8, !tbaa !13
  %7 = getelementptr inbounds nuw %struct.luaL_Stream, ptr %6, i32 0, i32 1
  store ptr null, ptr %7, align 8, !tbaa !17
  %8 = load ptr, ptr %2, align 8, !tbaa !4
  call void @luaL_setmetatable(ptr noundef %8, ptr noundef @.str.16)
  %9 = load ptr, ptr %3, align 8, !tbaa !13
  call void @llvm.lifetime.end.p0(i64 8, ptr %3) #8
  ret ptr %9
}

; Function Attrs: nounwind uwtable
define internal ptr @newfile(ptr noundef %0) #0 {
  %2 = alloca ptr, align 8
  %3 = alloca ptr, align 8
  store ptr %0, ptr %2, align 8, !tbaa !4
  call void @llvm.lifetime.start.p0(i64 8, ptr %3) #8
  %4 = load ptr, ptr %2, align 8, !tbaa !4
  %5 = call ptr @newprefile(ptr noundef %4)
  store ptr %5, ptr %3, align 8, !tbaa !13
  %6 = load ptr, ptr %3, align 8, !tbaa !13
  %7 = getelementptr inbounds nuw %struct.luaL_Stream, ptr %6, i32 0, i32 0
  store ptr null, ptr %7, align 8, !tbaa !15
  %8 = load ptr, ptr %3, align 8, !tbaa !13
  %9 = getelementptr inbounds nuw %struct.luaL_Stream, ptr %8, i32 0, i32 1
  store ptr @io_fclose, ptr %9, align 8, !tbaa !17
  %10 = load ptr, ptr %3, align 8, !tbaa !13
  call void @llvm.lifetime.end.p0(i64 8, ptr %3) #8
  ret ptr %10
}

; Function Attrs: nounwind uwtable
define internal i32 @io_tmpfile(ptr noundef %0) #0 {
  %2 = alloca ptr, align 8
  %3 = alloca ptr, align 8
  store ptr %0, ptr %2, align 8, !tbaa !4
  call void @llvm.lifetime.start.p0(i64 8, ptr %3) #8
  %4 = load ptr, ptr %2, align 8, !tbaa !4
  %5 = call ptr @newfile(ptr noundef %4)
  store ptr %5, ptr %3, align 8, !tbaa !13
  %6 = call ptr @__errno_location() #9
  store i32 0, ptr %6, align 4, !tbaa !18
  %7 = call noalias ptr @tmpfile64()
  %8 = load ptr, ptr %3, align 8, !tbaa !13
  %9 = getelementptr inbounds nuw %struct.luaL_Stream, ptr %8, i32 0, i32 0
  store ptr %7, ptr %9, align 8, !tbaa !15
  %10 = load ptr, ptr %3, align 8, !tbaa !13
  %11 = getelementptr inbounds nuw %struct.luaL_Stream, ptr %10, i32 0, i32 0
  %12 = load ptr, ptr %11, align 8, !tbaa !15
  %13 = icmp eq ptr %12, null
  br i1 %13, label %14, label %17

14:                                               ; preds = %1
  %15 = load ptr, ptr %2, align 8, !tbaa !4
  %16 = call i32 @luaL_fileresult(ptr noundef %15, i32 noundef 0, ptr noundef null)
  br label %18

17:                                               ; preds = %1
  br label %18

18:                                               ; preds = %17, %14
  %19 = phi i32 [ %16, %14 ], [ 1, %17 ]
  call void @llvm.lifetime.end.p0(i64 8, ptr %3) #8
  ret i32 %19
}