; Function Attrs: nounwind uwtable
define internal i32 @io_tmpfile(ptr noundef %0) #0 {
  %2 = tail call ptr @lua_newuserdatauv(ptr noundef %0, i64 noundef 16, i32 noundef 0) #9
  %3 = getelementptr inbounds nuw i8, ptr %2, i64 8
  store ptr null, ptr %3, align 8, !tbaa !9
  tail call void @luaL_setmetatable(ptr noundef %0, ptr noundef nonnull @.str.16) #9
  store ptr null, ptr %2, align 8, !tbaa !11
  store ptr @io_fclose, ptr %3, align 8, !tbaa !9
  %4 = tail call ptr @__errno_location() #10
  store i32 0, ptr %4, align 4, !tbaa !14
  %5 = tail call noalias ptr @tmpfile64()
  store ptr %5, ptr %2, align 8, !tbaa !11
  %6 = icmp eq ptr %5, null
  br i1 %6, label %7, label %9

7:                                                ; preds = %1
  %8 = tail call i32 @luaL_fileresult(ptr noundef %0, i32 noundef 0, ptr noundef null) #9
  br label %9

9:                                                ; preds = %1, %7
  %10 = phi i32 [ %8, %7 ], [ 1, %1 ]
  ret i32 %10
}